Certificate:
    Data:
        Version: 3 (0x2)
        Serial Number: 1 (0x1)
        Signature Algorithm: sha1WithRSAEncryption
        Issuer: O=ROSA, CN=ROSA CA
        Validity
            Not Before: Jan 24 14:57:21 2014 GMT
            Not After : Jan  1 00:00:00 2031 GMT
        Subject: O=ROSA, CN=ROSA CA
        Subject Public Key Info:
            Public Key Algorithm: rsaEncryption
            RSA Public Key: (2048 bit)
                Modulus (2048 bit):
                    00:ca:57:e6:d8:6e:59:b7:e1:37:09:44:48:ff:8c:
                    8f:85:56:23:6f:da:eb:d3:2c:b5:bb:07:b2:15:78:
                    c8:b1:bb:9e:be:4e:a9:4f:d3:f1:bd:b2:b2:9d:a9:
                    a6:90:85:44:7e:aa:5d:08:86:79:0a:7b:b3:67:06:
                    41:4c:fc:60:1c:48:19:1a:0a:32:c4:e8:8c:e5:c3:
                    fb:a6:c8:6d:9f:7b:a2:74:f1:b1:86:c9:82:3d:ac:
                    92:99:7f:26:81:38:e6:a6:dc:5c:a5:17:b2:7c:68:
                    ec:95:23:22:30:3e:a2:c3:43:c3:be:6c:d7:07:14:
                    38:be:54:96:bd:72:98:25:ff:5a:8d:db:e0:a1:4b:
                    1f:fc:c9:ca:f8:c0:c4:25:89:8e:e1:94:94:21:61:
                    c7:a9:ff:0f:7f:25:04:1c:e5:20:97:92:92:23:87:
                    36:fa:9b:e3:db:2b:cc:60:04:61:a4:6e:5c:35:aa:
                    f8:55:1e:c6:3a:6a:55:c6:7a:61:e7:eb:6c:73:75:
                    1a:00:d0:8c:b5:80:73:25:7c:3f:a2:7b:9e:fe:30:
                    fc:b8:f1:c9:e9:21:d4:f4:ef:20:e3:6a:f1:90:39:
                    1c:88:e6:58:ab:b7:16:40:50:1f:e0:d7:6c:b1:8f:
                    01:ec:d5:06:82:3a:90:0d:14:84:57:ea:52:df:57:
                    3a:61
                Exponent: 65537 (0x10001)
        X509v3 extensions:
            X509v3 Key Usage: critical
                Certificate Sign, CRL Sign
            X509v3 Basic Constraints: critical
                CA:TRUE
            X509v3 Subject Key Identifier: 
                D2:1B:1E:BC:27:E0:B6:DE:7B:C5:2F:64:DC:6B:56:48:31:53:93:CB
            X509v3 Authority Key Identifier: 
                keyid:D2:1B:1E:BC:27:E0:B6:DE:7B:C5:2F:64:DC:6B:56:48:31:53:93:CB

    Signature Algorithm: sha1WithRSAEncryption
        1c:2d:4e:de:63:7f:e5:12:b2:77:f7:88:0f:cc:f1:a7:d1:3e:
        81:47:3e:36:19:d0:e6:3f:60:bd:64:fb:6a:d2:e9:d9:d1:4a:
        c9:a0:4d:69:5c:da:a7:00:68:36:8a:a1:1a:5a:34:de:be:3d:
        4b:b4:e1:d0:7e:0c:c8:29:75:82:fb:39:9a:60:c4:bc:ea:d3:
        8d:81:e0:2c:3d:d0:ac:53:9d:0b:54:1d:a3:55:fe:98:70:e5:
        69:12:8f:02:15:c3:1f:f2:19:df:55:7e:b5:02:f9:ac:e7:36:
        9c:dd:a2:b1:82:a4:58:e3:c8:d3:8f:82:4f:71:87:9d:a5:cc:
        07:57:4b:6c:62:14:e1:d0:79:6e:76:e2:1e:9c:25:89:4a:62:
        cc:f2:2a:73:f8:55:ca:fb:a4:07:07:3f:3f:5a:97:e7:b2:ca:
        9b:df:14:f8:9b:e4:db:22:b7:c2:ea:eb:84:e6:99:64:77:8a:
        59:54:0e:c9:92:10:15:ae:65:4e:10:df:9d:d6:7e:4c:fe:e7:
        2c:fd:4c:fa:30:d5:c9:06:00:60:67:5e:f3:74:c9:1b:6e:f5:
        c8:65:64:3f:af:94:8a:b1:3c:3a:50:73:3a:2d:cc:66:97:63:
        32:d8:aa:0f:6d:57:5d:f0:d1:c0:87:30:a9:3a:9c:00:cf:49:
        7f:ce:0c:c4
-----BEGIN CERTIFICATE-----
MIIDIDCCAgigAwIBAgIBATANBgkqhkiG9w0BAQUFADAhMQ0wCwYDVQQKDARST1NB
MRAwDgYDVQQDDAdST1NBIENBMB4XDTE0MDEyNDE0NTcyMVoXDTMxMDEwMTAwMDAw
MFowITENMAsGA1UECgwEUk9TQTEQMA4GA1UEAwwHUk9TQSBDQTCCASIwDQYJKoZI
hvcNAQEBBQADggEPADCCAQoCggEBAMpX5thuWbfhNwlESP+Mj4VWI2/a69MstbsH
shV4yLG7nr5OqU/T8b2ysp2pppCFRH6qXQiGeQp7s2cGQUz8YBxIGRoKMsTojOXD
+6bIbZ97onTxsYbJgj2skpl/JoE45qbcXKUXsnxo7JUjIjA+osNDw75s1wcUOL5U
lr1ymCX/Wo3b4KFLH/zJyvjAxCWJjuGUlCFhx6n/D38lBBzlIJeSkiOHNvqb49sr
zGAEYaRuXDWq+FUexjpqVcZ6YefrbHN1GgDQjLWAcyV8P6J7nv4w/Ljxyekh1PTv
IONq8ZA5HIjmWKu3FkBQH+DXbLGPAezVBoI6kA0UhFfqUt9XOmECAwEAAaNjMGEw
DgYDVR0PAQH/BAQDAgEGMA8GA1UdEwEB/wQFMAMBAf8wHQYDVR0OBBYEFNIbHrwn
4Lbee8UvZNxrVkgxU5PLMB8GA1UdIwQYMBaAFNIbHrwn4Lbee8UvZNxrVkgxU5PL
MA0GCSqGSIb3DQEBBQUAA4IBAQAcLU7eY3/lErJ394gPzPGn0T6BRz42GdDmP2C9
ZPtq0unZ0UrJoE1pXNqnAGg2iqEaWjTevj1LtOHQfgzIKXWC+zmaYMS86tONgeAs
PdCsU50LVB2jVf6YcOVpEo8CFcMf8hnfVX61Avms5zac3aKxgqRY48jTj4JPcYed
pcwHV0tsYhTh0HluduIenCWJSmLM8ipz+FXK+6QHBz8/Wpfnssqb3xT4m+TbIrfC
6uuE5plkd4pZVA7JkhAVrmVOEN+d1n5M/ucs/Uz6MNXJBgBgZ17zdMkbbvXIZWQ/
r5SKsTw6UHM6Lcxml2My2KoPbVdd8NHAhzCpOpwAz0l/zgzE
-----END CERTIFICATE-----
