Certificate:
    Data:
        Version: 3 (0x2)
        Serial Number: 4 (0x4)
        Signature Algorithm: sha1WithRSAEncryption
        Issuer: O=ROSA, CN=ROSA CA
        Validity
            Not Before: Jan 24 17:27:24 2014 GMT
            Not After : Jan 24 17:27:24 2015 GMT
        Subject: O=ROSA, CN=andrzej
        Subject Public Key Info:
            Public Key Algorithm: rsaEncryption
            RSA Public Key: (2048 bit)
                Modulus (2048 bit):
                    00:ce:b1:79:ea:67:28:3f:33:05:32:b9:cf:9c:e2:
                    f6:cc:69:12:85:95:d8:4e:58:57:ad:7d:e9:71:2c:
                    25:4e:95:84:5a:09:85:c5:4c:c8:0c:5a:08:3a:33:
                    75:fe:cb:32:aa:a3:ac:07:a7:30:f6:cc:a0:60:10:
                    bb:75:68:ae:8b:62:92:06:a9:a7:dd:bc:4d:64:68:
                    e8:7e:30:95:81:43:28:77:e4:f1:12:99:8f:1c:ec:
                    6a:5a:c5:e3:57:cd:53:a3:56:4e:ea:ba:20:fc:cd:
                    62:81:2a:01:0b:b3:3a:f1:7c:08:78:e5:d3:e5:dd:
                    15:96:bf:8f:84:c8:02:14:ef:b4:86:45:76:df:b5:
                    61:3e:df:0e:1d:38:54:f9:eb:30:5d:41:36:e2:e5:
                    63:13:fe:71:a0:74:98:d3:3a:0e:a1:86:cb:4f:05:
                    be:05:61:57:04:74:ab:1a:f1:d3:4b:71:99:5f:6c:
                    86:ae:77:f8:3a:9e:9e:74:4c:79:ff:d1:c4:ac:57:
                    02:c3:63:52:a1:0c:86:c6:c5:25:cf:11:55:4b:8c:
                    cc:ae:99:3e:6d:48:81:43:82:20:e3:7a:bc:e1:c0:
                    fb:0c:bf:94:48:0f:c7:86:90:f9:bc:eb:f9:93:81:
                    d5:6c:43:68:10:29:59:f1:0e:32:d7:9e:c0:fb:88:
                    86:8b
                Exponent: 65537 (0x10001)
        X509v3 extensions:
            X509v3 Key Usage: critical
                Digital Signature, Non Repudiation, Key Encipherment, Data Encipherment, Key Agreement
            X509v3 Basic Constraints: 
                CA:FALSE
            X509v3 Extended Key Usage: 
                TLS Web Client Authentication
            X509v3 Subject Key Identifier: 
                29:4F:96:EE:41:01:1E:76:49:2E:36:3D:4B:D8:AA:45:CF:88:AD:65
            X509v3 Authority Key Identifier: 
                keyid:D2:1B:1E:BC:27:E0:B6:DE:7B:C5:2F:64:DC:6B:56:48:31:53:93:CB

            Authority Information Access: 
                CA Issuers - URI:http://rosa.ca/ca.crt

            X509v3 CRL Distribution Points: 
                URI:http://rosa.ca/ca.crl

            X509v3 Subject Alternative Name: 
                <EMPTY>

    Signature Algorithm: sha1WithRSAEncryption
        8c:cf:13:ad:86:74:86:52:25:bd:88:67:a0:22:4f:c0:44:be:
        29:02:fc:cc:e3:0b:dc:03:0d:13:09:33:25:b2:26:8a:95:12:
        96:d6:12:da:bc:0f:40:09:2c:96:5a:cb:bf:53:d5:87:87:c3:
        9b:99:30:28:c3:cd:06:3c:9c:ca:40:17:f0:76:db:ed:33:63:
        df:41:b2:e7:15:85:63:d7:5c:2a:a9:45:0f:76:54:52:74:0d:
        87:fd:f2:f7:69:e5:25:49:23:42:4a:5c:6c:ce:82:8c:30:56:
        87:c8:52:f0:ae:8a:bc:64:53:49:cd:66:76:e6:c2:65:8e:13:
        d1:50:13:70:6e:b0:3d:8c:b5:9c:7d:f0:c3:fb:c8:94:bf:1d:
        50:9b:5c:1b:a3:13:8d:e1:23:c9:8b:09:7d:78:09:7a:a2:4c:
        47:d4:33:b2:31:0b:9a:0f:1a:f2:6f:9c:31:d3:ca:90:06:66:
        67:12:8c:25:a1:3b:c3:0d:5b:b9:cb:28:e2:5b:99:7a:4e:ab:
        8c:1b:ad:6f:60:7d:82:95:71:97:30:2b:cf:fd:b9:7a:98:e4:
        75:97:f7:76:37:3e:c7:d2:01:34:0e:c1:6e:36:a6:46:c7:d8:
        b3:a7:19:8d:3b:d8:e7:af:d6:23:83:d0:19:18:12:63:d6:2d:
        af:b8:6c:f2
-----BEGIN CERTIFICATE-----
MIIDlzCCAn+gAwIBAgIBBDANBgkqhkiG9w0BAQUFADAhMQ0wCwYDVQQKDARST1NB
MRAwDgYDVQQDDAdST1NBIENBMB4XDTE0MDEyNDE3MjcyNFoXDTE1MDEyNDE3Mjcy
NFowITENMAsGA1UECgwEUk9TQTEQMA4GA1UEAwwHYW5kcnplajCCASIwDQYJKoZI
hvcNAQEBBQADggEPADCCAQoCggEBAM6xeepnKD8zBTK5z5zi9sxpEoWV2E5YV619
6XEsJU6VhFoJhcVMyAxaCDozdf7LMqqjrAenMPbMoGAQu3Vorotikgapp928TWRo
6H4wlYFDKHfk8RKZjxzsalrF41fNU6NWTuq6IPzNYoEqAQuzOvF8CHjl0+XdFZa/
j4TIAhTvtIZFdt+1YT7fDh04VPnrMF1BNuLlYxP+caB0mNM6DqGGy08FvgVhVwR0
qxrx00txmV9shq53+DqennRMef/RxKxXAsNjUqEMhsbFJc8RVUuMzK6ZPm1IgUOC
ION6vOHA+wy/lEgPx4aQ+bzr+ZOB1WxDaBApWfEOMteewPuIhosCAwEAAaOB2TCB
1jAOBgNVHQ8BAf8EBAMCA/gwCQYDVR0TBAIwADATBgNVHSUEDDAKBggrBgEFBQcD
AjAdBgNVHQ4EFgQUKU+W7kEBHnZJLjY9S9iqRc+IrWUwHwYDVR0jBBgwFoAU0hse
vCfgtt57xS9k3GtWSDFTk8swMQYIKwYBBQUHAQEEJTAjMCEGCCsGAQUFBzAChhVo
dHRwOi8vcm9zYS5jYS9jYS5jcnQwJgYDVR0fBB8wHTAboBmgF4YVaHR0cDovL3Jv
c2EuY2EvY2EuY3JsMAkGA1UdEQQCMAAwDQYJKoZIhvcNAQEFBQADggEBAIzPE62G
dIZSJb2IZ6AiT8BEvikC/MzjC9wDDRMJMyWyJoqVEpbWEtq8D0AJLJZay79T1YeH
w5uZMCjDzQY8nMpAF/B22+0zY99BsucVhWPXXCqpRQ92VFJ0DYf98vdp5SVJI0JK
XGzOgowwVofIUvCuirxkU0nNZnbmwmWOE9FQE3BusD2MtZx98MP7yJS/HVCbXBuj
E43hI8mLCX14CXqiTEfUM7IxC5oPGvJvnDHTypAGZmcSjCWhO8MNW7nLKOJbmXpO
q4wbrW9gfYKVcZcwK8/9uXqY5HWX93Y3PsfSATQOwW42pkbH2LOnGY072Oev1iOD
0BkYEmPWLa+4bPI=
-----END CERTIFICATE-----
