Certificate:
    Data:
        Version: 3 (0x2)
        Serial Number: 6 (0x6)
        Signature Algorithm: sha1WithRSAEncryption
        Issuer: O=ROSA, CN=ROSA CA
        Validity
            Not Before: Jan 24 17:27:56 2014 GMT
            Not After : Jan 24 17:27:56 2015 GMT
        Subject: O=ROSA, CN=michal
        Subject Public Key Info:
            Public Key Algorithm: rsaEncryption
            RSA Public Key: (2048 bit)
                Modulus (2048 bit):
                    00:a2:ce:1b:6c:55:3d:7e:33:4c:98:65:0e:f3:f5:
                    84:b9:17:22:1d:6d:b9:0f:b7:91:52:b8:b1:9d:d6:
                    19:9d:bd:10:0f:ba:4e:3e:f0:4f:db:5a:1a:1d:8d:
                    b8:8e:de:da:44:58:c9:e1:db:0c:49:cb:7d:02:eb:
                    10:9b:98:63:bf:1e:46:f4:52:10:39:fc:09:d8:b2:
                    52:5a:4d:f9:20:09:b7:ce:da:c7:57:ff:87:e8:33:
                    66:47:8b:2b:ce:bf:1d:0c:ec:03:68:15:31:80:52:
                    7a:9c:b1:bb:23:38:06:a9:a3:38:b1:c4:75:48:b1:
                    fe:28:1b:61:4c:71:c1:50:6a:8b:68:18:7e:28:72:
                    2d:68:9e:f6:c0:08:e8:03:34:eb:81:9c:bb:46:96:
                    55:22:a2:1e:80:9c:b3:0d:00:59:22:79:dc:ed:bc:
                    5f:1e:1f:6c:04:5c:0b:52:92:ff:e2:be:ae:d7:bf:
                    66:7f:ab:44:4f:e4:ac:e7:51:fa:9e:80:98:a9:a6:
                    f9:00:90:47:65:91:4a:72:4c:65:50:5c:2b:ec:31:
                    33:60:15:19:88:4a:69:d7:bc:d7:97:86:95:94:3f:
                    ba:36:37:3d:55:41:0b:6f:70:e0:fb:c7:bb:1d:4b:
                    1d:51:a5:af:4d:a8:13:2d:41:3b:06:7e:b7:d0:be:
                    f5:45
                Exponent: 65537 (0x10001)
        X509v3 extensions:
            X509v3 Key Usage: critical
                Digital Signature, Non Repudiation, Key Encipherment, Data Encipherment, Key Agreement
            X509v3 Basic Constraints: 
                CA:FALSE
            X509v3 Extended Key Usage: 
                TLS Web Client Authentication
            X509v3 Subject Key Identifier: 
                1C:C2:40:1D:CD:1C:D5:D2:73:38:B7:07:84:78:C2:36:52:6C:37:72
            X509v3 Authority Key Identifier: 
                keyid:D2:1B:1E:BC:27:E0:B6:DE:7B:C5:2F:64:DC:6B:56:48:31:53:93:CB

            Authority Information Access: 
                CA Issuers - URI:http://rosa.ca/ca.crt

            X509v3 CRL Distribution Points: 
                URI:http://rosa.ca/ca.crl

            X509v3 Subject Alternative Name: 
                <EMPTY>

    Signature Algorithm: sha1WithRSAEncryption
        b4:c1:41:05:45:52:74:9c:f3:9a:e0:a5:0e:6f:be:f3:a2:23:
        18:23:6d:52:73:0c:d3:dc:6e:33:0d:1d:7f:76:3f:9f:1d:d4:
        82:1f:4b:ac:5f:25:2f:0b:5c:33:6a:e6:12:d2:69:36:5c:f8:
        bd:ee:75:ff:83:16:79:31:4b:06:15:6a:88:fc:5c:a4:29:40:
        d3:59:80:7a:fd:19:62:a1:97:63:05:fc:d6:cd:32:72:7f:38:
        d6:4d:58:ec:17:b8:ab:18:62:01:7b:9d:6a:af:dc:97:e8:ca:
        83:06:b6:df:73:36:cd:18:29:8d:de:6a:37:da:cb:5f:c0:b1:
        e1:1e:ba:4b:cc:8e:5d:2c:9b:94:3a:a2:ad:4e:e4:27:b0:9b:
        56:47:35:e5:fd:07:a2:20:18:f7:b7:98:68:28:0d:44:f0:46:
        67:07:71:2d:53:5c:ba:92:9b:aa:81:95:d3:05:41:80:46:a8:
        a3:07:91:9f:cb:22:92:6b:a7:df:68:d1:84:33:96:68:cb:c5:
        10:ca:1c:7a:3a:b1:6c:0b:be:91:02:75:9b:db:a6:f7:2f:82:
        4d:78:af:af:9b:b5:63:c4:37:66:7b:92:01:ef:a5:3b:9c:93:
        40:bb:83:ae:27:75:78:d6:e2:e7:db:74:65:1d:85:86:fb:1e:
        77:30:3c:32
-----BEGIN CERTIFICATE-----
MIIDljCCAn6gAwIBAgIBBjANBgkqhkiG9w0BAQUFADAhMQ0wCwYDVQQKDARST1NB
MRAwDgYDVQQDDAdST1NBIENBMB4XDTE0MDEyNDE3Mjc1NloXDTE1MDEyNDE3Mjc1
NlowIDENMAsGA1UECgwEUk9TQTEPMA0GA1UEAwwGbWljaGFsMIIBIjANBgkqhkiG
9w0BAQEFAAOCAQ8AMIIBCgKCAQEAos4bbFU9fjNMmGUO8/WEuRciHW25D7eRUrix
ndYZnb0QD7pOPvBP21oaHY24jt7aRFjJ4dsMSct9AusQm5hjvx5G9FIQOfwJ2LJS
Wk35IAm3ztrHV/+H6DNmR4srzr8dDOwDaBUxgFJ6nLG7IzgGqaM4scR1SLH+KBth
THHBUGqLaBh+KHItaJ72wAjoAzTrgZy7RpZVIqIegJyzDQBZInnc7bxfHh9sBFwL
UpL/4r6u179mf6tET+Ss51H6noCYqab5AJBHZZFKckxlUFwr7DEzYBUZiEpp17zX
l4aVlD+6Njc9VUELb3Dg+8e7HUsdUaWvTagTLUE7Bn630L71RQIDAQABo4HZMIHW
MA4GA1UdDwEB/wQEAwID+DAJBgNVHRMEAjAAMBMGA1UdJQQMMAoGCCsGAQUFBwMC
MB0GA1UdDgQWBBQcwkAdzRzV0nM4tweEeMI2Umw3cjAfBgNVHSMEGDAWgBTSGx68
J+C23nvFL2Tca1ZIMVOTyzAxBggrBgEFBQcBAQQlMCMwIQYIKwYBBQUHMAKGFWh0
dHA6Ly9yb3NhLmNhL2NhLmNydDAmBgNVHR8EHzAdMBugGaAXhhVodHRwOi8vcm9z
YS5jYS9jYS5jcmwwCQYDVR0RBAIwADANBgkqhkiG9w0BAQUFAAOCAQEAtMFBBUVS
dJzzmuClDm++86IjGCNtUnMM09xuMw0df3Y/nx3Ugh9LrF8lLwtcM2rmEtJpNlz4
ve51/4MWeTFLBhVqiPxcpClA01mAev0ZYqGXYwX81s0ycn841k1Y7Be4qxhiAXud
aq/cl+jKgwa233M2zRgpjd5qN9rLX8Cx4R66S8yOXSyblDqirU7kJ7CbVkc15f0H
oiAY97eYaCgNRPBGZwdxLVNcupKbqoGV0wVBgEaooweRn8sikmun32jRhDOWaMvF
EMocejqxbAu+kQJ1m9um9y+CTXivr5u1Y8Q3ZnuSAe+lO5yTQLuDrid1eNbi59t0
ZR2FhvsedzA8Mg==
-----END CERTIFICATE-----
