Certificate:
    Data:
        Version: 3 (0x2)
        Serial Number: 5 (0x5)
        Signature Algorithm: sha1WithRSAEncryption
        Issuer: O=ROSA, CN=ROSA CA
        Validity
            Not Before: Jan 24 17:27:42 2014 GMT
            Not After : Jan 24 17:27:42 2015 GMT
        Subject: O=ROSA, CN=grazyna
        Subject Public Key Info:
            Public Key Algorithm: rsaEncryption
            RSA Public Key: (2048 bit)
                Modulus (2048 bit):
                    00:b3:00:9e:7f:fc:ea:37:ea:c6:5a:c6:32:92:58:
                    aa:d4:0a:f8:7b:90:07:ad:10:c3:5e:e3:38:59:10:
                    00:48:2d:25:79:57:2c:2e:f3:73:0a:5e:0d:38:c6:
                    b4:c6:ed:fd:6a:93:e8:75:57:3e:7e:9b:84:f2:3b:
                    2d:f7:dd:e2:26:bc:be:af:0c:4b:f3:0d:72:5a:73:
                    b6:b9:14:0d:c1:7b:0d:99:ae:28:fd:96:3d:b2:51:
                    3a:e2:e5:b2:6d:cd:38:79:39:d9:db:2f:19:09:23:
                    c4:a1:a7:b7:05:63:37:90:30:95:f8:ae:46:0a:11:
                    ed:0e:76:83:03:4f:41:f5:8e:10:6e:eb:aa:6e:10:
                    3c:57:70:3f:25:bb:fa:57:fd:4b:22:83:59:b1:46:
                    d5:e4:36:6c:ba:aa:fe:b7:4d:b2:41:77:33:9c:46:
                    fb:5a:d3:46:46:c1:35:90:58:e5:16:f1:12:d9:25:
                    1d:1a:f0:70:f1:33:b8:06:e6:1f:35:4e:6f:23:1b:
                    58:aa:a2:61:88:00:56:ce:b4:82:b9:ad:58:51:de:
                    cd:57:6a:6d:79:47:e1:f9:92:61:10:b3:b7:83:1e:
                    9d:97:0e:3d:28:2f:d5:84:d1:c1:82:56:1b:cd:f4:
                    75:34:e4:7e:a0:59:7d:41:e0:be:e4:c0:7f:11:3c:
                    3d:e9
                Exponent: 65537 (0x10001)
        X509v3 extensions:
            X509v3 Key Usage: critical
                Digital Signature, Non Repudiation, Key Encipherment, Data Encipherment, Key Agreement
            X509v3 Basic Constraints: 
                CA:FALSE
            X509v3 Extended Key Usage: 
                TLS Web Client Authentication
            X509v3 Subject Key Identifier: 
                40:DB:9E:22:D5:47:3B:6D:43:40:A3:45:EC:74:5B:61:10:ED:C2:FB
            X509v3 Authority Key Identifier: 
                keyid:D2:1B:1E:BC:27:E0:B6:DE:7B:C5:2F:64:DC:6B:56:48:31:53:93:CB

            Authority Information Access: 
                CA Issuers - URI:http://rosa.ca/ca.crt

            X509v3 CRL Distribution Points: 
                URI:http://rosa.ca/ca.crl

            X509v3 Subject Alternative Name: 
                <EMPTY>

    Signature Algorithm: sha1WithRSAEncryption
        56:96:c9:7d:bd:a7:44:ea:17:e2:77:c3:d3:bb:6c:fa:51:81:
        24:4d:7a:b2:00:ff:b1:c4:86:0b:82:9a:7f:9d:ea:88:f7:2f:
        3a:25:f7:19:0e:29:1c:bc:2d:23:55:42:85:e8:fe:ca:87:dd:
        f3:b3:9f:2f:fd:43:15:9b:0b:19:df:87:a7:1d:d7:69:4e:40:
        75:5e:d6:bc:1f:87:a5:a8:37:02:c8:6b:1a:a4:aa:96:af:8c:
        5d:01:66:63:55:06:83:d3:58:8b:34:d7:ea:fe:be:9b:6e:29:
        f4:ca:e5:b2:69:2a:99:42:1f:37:10:e6:02:12:90:70:1a:fc:
        ad:4d:ab:68:21:af:50:0f:08:1b:27:3e:b8:17:89:62:72:b4:
        2f:9f:f9:21:e5:36:62:77:85:a7:9f:5f:55:82:35:d3:ba:e0:
        12:d4:ee:f8:e0:c7:b5:7c:f0:78:3b:f7:21:a0:1b:ee:b2:09:
        e4:45:65:80:97:bf:3e:0a:fd:5e:b2:50:2d:59:24:00:dd:64:
        31:4a:99:e1:84:18:86:9e:cd:89:e8:4c:2d:75:16:ec:4a:69:
        34:55:a2:ea:fe:02:da:8e:38:1d:86:9f:3d:13:b5:39:ff:b5:
        87:44:e1:3c:44:4b:dc:11:ae:1f:c6:39:1e:da:4b:8d:32:a9:
        5c:fd:38:18
-----BEGIN CERTIFICATE-----
MIIDlzCCAn+gAwIBAgIBBTANBgkqhkiG9w0BAQUFADAhMQ0wCwYDVQQKDARST1NB
MRAwDgYDVQQDDAdST1NBIENBMB4XDTE0MDEyNDE3Mjc0MloXDTE1MDEyNDE3Mjc0
MlowITENMAsGA1UECgwEUk9TQTEQMA4GA1UEAwwHZ3JhenluYTCCASIwDQYJKoZI
hvcNAQEBBQADggEPADCCAQoCggEBALMAnn/86jfqxlrGMpJYqtQK+HuQB60Qw17j
OFkQAEgtJXlXLC7zcwpeDTjGtMbt/WqT6HVXPn6bhPI7Lffd4ia8vq8MS/MNclpz
trkUDcF7DZmuKP2WPbJROuLlsm3NOHk52dsvGQkjxKGntwVjN5AwlfiuRgoR7Q52
gwNPQfWOEG7rqm4QPFdwPyW7+lf9SyKDWbFG1eQ2bLqq/rdNskF3M5xG+1rTRkbB
NZBY5RbxEtklHRrwcPEzuAbmHzVObyMbWKqiYYgAVs60grmtWFHezVdqbXlH4fmS
YRCzt4MenZcOPSgv1YTRwYJWG830dTTkfqBZfUHgvuTAfxE8PekCAwEAAaOB2TCB
1jAOBgNVHQ8BAf8EBAMCA/gwCQYDVR0TBAIwADATBgNVHSUEDDAKBggrBgEFBQcD
AjAdBgNVHQ4EFgQUQNueItVHO21DQKNF7HRbYRDtwvswHwYDVR0jBBgwFoAU0hse
vCfgtt57xS9k3GtWSDFTk8swMQYIKwYBBQUHAQEEJTAjMCEGCCsGAQUFBzAChhVo
dHRwOi8vcm9zYS5jYS9jYS5jcnQwJgYDVR0fBB8wHTAboBmgF4YVaHR0cDovL3Jv
c2EuY2EvY2EuY3JsMAkGA1UdEQQCMAAwDQYJKoZIhvcNAQEFBQADggEBAFaWyX29
p0TqF+J3w9O7bPpRgSRNerIA/7HEhguCmn+d6oj3Lzol9xkOKRy8LSNVQoXo/sqH
3fOzny/9QxWbCxnfh6cd12lOQHVe1rwfh6WoNwLIaxqkqpavjF0BZmNVBoPTWIs0
1+r+vptuKfTK5bJpKplCHzcQ5gISkHAa/K1Nq2ghr1APCBsnPrgXiWJytC+f+SHl
NmJ3haefX1WCNdO64BLU7vjgx7V88Hg79yGgG+6yCeRFZYCXvz4K/V6yUC1ZJADd
ZDFKmeGEGIaezYnoTC11FuxKaTRVour+AtqOOB2Gnz0TtTn/tYdE4TxES9wRrh/G
OR7aS40yqVz9OBg=
-----END CERTIFICATE-----
